target datalayout = "e-m:e-p270:32:32-p271:32:32-p272:64:64-i64:64-i128:128-f80:128-n8:16:32:64-S128"
target triple = "x86_64-pc-linux-gnu"

%struct.mpd_t = type { i8, i64, i64, i64, i64, ptr }

; Function Attrs: alwaysinline nounwind uwtable
define hidden i64 @mpd_msword(ptr noundef %0) #1 {
  %2 = alloca ptr, align 8
  store ptr %0, ptr %2, align 8, !tbaa !7
  %3 = load ptr, ptr %2, align 8, !tbaa !7
  %4 = getelementptr inbounds nuw %struct.mpd_t, ptr %3, i32 0, i32 5
  %5 = load ptr, ptr %4, align 8, !tbaa !21
  %6 = load ptr, ptr %2, align 8, !tbaa !7
  %7 = getelementptr inbounds nuw %struct.mpd_t, ptr %6, i32 0, i32 3
  %8 = load i64, ptr %7, align 8, !tbaa !22
  %9 = sub i64 %8, 1
  %10 = getelementptr i64, ptr %5, i64 %9
  %11 = load i64, ptr %10, align 8, !tbaa !3
  ret i64 %11
}

; Function Attrs: nounwind uwtable
define hidden i64 @mpd_trail_zeros(ptr noundef %0) #0 {
  %2 = alloca ptr, align 8
  %3 = alloca i64, align 8
  %4 = alloca i64, align 8
  %5 = alloca i64, align 8
  store ptr %0, ptr %2, align 8, !tbaa !7
  call void @llvm.lifetime.start.p0(i64 8, ptr %3) #10
  call void @llvm.lifetime.start.p0(i64 8, ptr %4) #10
  call void @llvm.lifetime.start.p0(i64 8, ptr %5) #10
  store i64 0, ptr %5, align 8, !tbaa !3
  store i64 0, ptr %4, align 8, !tbaa !3
  br label %6

6:                                                ; preds = %40, %1
  %7 = load i64, ptr %4, align 8, !tbaa !3
  %8 = load ptr, ptr %2, align 8, !tbaa !7
  %9 = getelementptr inbounds nuw %struct.mpd_t, ptr %8, i32 0, i32 3
  %10 = load i64, ptr %9, align 8, !tbaa !22
  %11 = icmp slt i64 %7, %10
  br i1 %11, label %12, label %43

12:                                               ; preds = %6
  %13 = load ptr, ptr %2, align 8, !tbaa !7
  %14 = getelementptr inbounds nuw %struct.mpd_t, ptr %13, i32 0, i32 5
  %15 = load ptr, ptr %14, align 8, !tbaa !21
  %16 = load i64, ptr %4, align 8, !tbaa !3
  %17 = getelementptr i64, ptr %15, i64 %16
  %18 = load i64, ptr %17, align 8, !tbaa !3
  %19 = icmp ne i64 %18, 0
  br i1 %19, label %20, label %39

20:                                               ; preds = %12
  %21 = load ptr, ptr %2, align 8, !tbaa !7
  %22 = getelementptr inbounds nuw %struct.mpd_t, ptr %21, i32 0, i32 5
  %23 = load ptr, ptr %22, align 8, !tbaa !21
  %24 = load i64, ptr %4, align 8, !tbaa !3
  %25 = getelementptr i64, ptr %23, i64 %24
  %26 = load i64, ptr %25, align 8, !tbaa !3
  store i64 %26, ptr %3, align 8, !tbaa !3
  %27 = load i64, ptr %4, align 8, !tbaa !3
  %28 = mul i64 %27, 19
  store i64 %28, ptr %5, align 8, !tbaa !3
  br label %29

29:                                               ; preds = %33, %20
  %30 = load i64, ptr %3, align 8, !tbaa !3
  %31 = urem i64 %30, 10
  %32 = icmp eq i64 %31, 0
  br i1 %32, label %33, label %38

33:                                               ; preds = %29
  %34 = load i64, ptr %3, align 8, !tbaa !3
  %35 = udiv i64 %34, 10
  store i64 %35, ptr %3, align 8, !tbaa !3
  %36 = load i64, ptr %5, align 8, !tbaa !3
  %37 = add i64 %36, 1
  store i64 %37, ptr %5, align 8, !tbaa !3
  br label %29, !llvm.loop !34

38:                                               ; preds = %29
  br label %43

39:                                               ; preds = %12
  br label %40

40:                                               ; preds = %39
  %41 = load i64, ptr %4, align 8, !tbaa !3
  %42 = add i64 %41, 1
  store i64 %42, ptr %4, align 8, !tbaa !3
  br label %6, !llvm.loop !35

43:                                               ; preds = %38, %6
  %44 = load i64, ptr %5, align 8, !tbaa !3
  call void @llvm.lifetime.end.p0(i64 8, ptr %5) #10
  call void @llvm.lifetime.end.p0(i64 8, ptr %4) #10
  call void @llvm.lifetime.end.p0(i64 8, ptr %3) #10
  ret i64 %44
}

; Function Attrs: alwaysinline nounwind uwtable
define hidden i32 @mpd_iszerocoeff(ptr noundef %0) #1 {
  %2 = alloca ptr, align 8
  store ptr %0, ptr %2, align 8, !tbaa !7
  %3 = load ptr, ptr %2, align 8, !tbaa !7
  %4 = call i64 @mpd_msword(ptr noundef %3)
  %5 = icmp eq i64 %4, 0
  %6 = zext i1 %5 to i32
  ret i32 %6
}

; Function Attrs: nounwind uwtable
define internal i32 @_mpd_isint(ptr noundef %0) #0 {
  %2 = alloca i32, align 4
  %3 = alloca ptr, align 8
  %4 = alloca i64, align 8
  %5 = alloca i32, align 4
  store ptr %0, ptr %3, align 8, !tbaa !7
  call void @llvm.lifetime.start.p0(i64 8, ptr %4) #10
  %6 = load ptr, ptr %3, align 8, !tbaa !7
  %7 = call i32 @mpd_iszerocoeff(ptr noundef %6)
  %8 = icmp ne i32 %7, 0
  br i1 %8, label %9, label %10

9:                                                ; preds = %1
  store i32 1, ptr %2, align 4
  store i32 1, ptr %5, align 4
  br label %20

10:                                               ; preds = %1
  %11 = load ptr, ptr %3, align 8, !tbaa !7
  %12 = call i64 @mpd_trail_zeros(ptr noundef %11)
  store i64 %12, ptr %4, align 8, !tbaa !3
  %13 = load ptr, ptr %3, align 8, !tbaa !7
  %14 = getelementptr inbounds nuw %struct.mpd_t, ptr %13, i32 0, i32 1
  %15 = load i64, ptr %14, align 8, !tbaa !10
  %16 = load i64, ptr %4, align 8, !tbaa !3
  %17 = add i64 %15, %16
  %18 = icmp sge i64 %17, 0
  %19 = zext i1 %18 to i32
  store i32 %19, ptr %2, align 4
  store i32 1, ptr %5, align 4
  br label %20

20:                                               ; preds = %10, %9
  call void @llvm.lifetime.end.p0(i64 8, ptr %4) #10
  %21 = load i32, ptr %2, align 4
  ret i32 %21
}