; Function Attrs: nofree norecurse nosync nounwind memory(read, inaccessiblemem: none) uwtable
define internal fastcc range(i32 0, 2) i32 @_mpd_isint(ptr noundef readonly captures(none) %0) unnamed_addr #13 {
  %2 = getelementptr inbounds nuw i8, ptr %0, i64 40
  %3 = load ptr, ptr %2, align 8, !tbaa !17
  %4 = getelementptr inbounds nuw i8, ptr %0, i64 24
  %5 = load i64, ptr %4, align 8, !tbaa !18
  %6 = getelementptr i64, ptr %3, i64 %5
  %7 = getelementptr i8, ptr %6, i64 -8
  %8 = load i64, ptr %7, align 8, !tbaa !3
  %.not = icmp eq i64 %8, 0
  br i1 %.not, label %28, label %9

9:                                                ; preds = %1
  %10 = icmp sgt i64 %5, 0
  br i1 %10, label %.lr.ph.i, label %mpd_trail_zeros.exit

.lr.ph.i:                                         ; preds = %9, %21
  %.01116.i = phi i64 [ %22, %21 ], [ 0, %9 ]
  %11 = getelementptr i64, ptr %3, i64 %.01116.i
  %12 = load i64, ptr %11, align 8, !tbaa !3
  %.not.i = icmp eq i64 %12, 0
  br i1 %.not.i, label %21, label %13

13:                                               ; preds = %.lr.ph.i
  %14 = mul i64 %.01116.i, 19
  %15 = urem i64 %12, 10
  %16 = icmp eq i64 %15, 0
  br i1 %16, label %.lr.ph19.i, label %mpd_trail_zeros.exit

.lr.ph19.i:                                       ; preds = %13, %.lr.ph19.i
  %.118.i = phi i64 [ %18, %.lr.ph19.i ], [ %14, %13 ]
  %.01217.i = phi i64 [ %17, %.lr.ph19.i ], [ %12, %13 ]
  %17 = udiv i64 %.01217.i, 10
  %18 = add i64 %.118.i, 1
  %19 = urem i64 %17, 10
  %20 = icmp eq i64 %19, 0
  br i1 %20, label %.lr.ph19.i, label %mpd_trail_zeros.exit, !llvm.loop !26

21:                                               ; preds = %.lr.ph.i
  %22 = add nuw nsw i64 %.01116.i, 1
  %exitcond.not.i = icmp eq i64 %22, %5
  br i1 %exitcond.not.i, label %mpd_trail_zeros.exit, label %.lr.ph.i, !llvm.loop !27

mpd_trail_zeros.exit:                             ; preds = %21, %.lr.ph19.i, %9, %13
  %.0.i = phi i64 [ %14, %13 ], [ 0, %9 ], [ %18, %.lr.ph19.i ], [ 0, %21 ]
  %23 = getelementptr inbounds nuw i8, ptr %0, i64 8
  %24 = load i64, ptr %23, align 8, !tbaa !7
  %25 = add i64 %24, %.0.i
  %26 = icmp sgt i64 %25, -1
  %27 = zext i1 %26 to i32
  br label %28

28:                                               ; preds = %1, %mpd_trail_zeros.exit
  %.0 = phi i32 [ %27, %mpd_trail_zeros.exit ], [ 1, %1 ]
  ret i32 %.0
}